; Function Attrs: nofree norecurse nosync nounwind memory(readwrite, inaccessiblemem: none) uwtable
define internal void @SDL_Blit_RGBA8888_ARGB8888_Scale(ptr noundef captures(none) %0) #0 {
  %2 = getelementptr inbounds nuw i8, ptr %0, i64 20
  %3 = load i32, ptr %2, align 4
  %4 = sext i32 %3 to i64
  %5 = shl nsw i64 %4, 16
  %6 = getelementptr inbounds nuw i8, ptr %0, i64 52
  %7 = load i32, ptr %6, align 4
  %8 = sext i32 %7 to i64
  %9 = udiv i64 %5, %8
  %10 = getelementptr inbounds nuw i8, ptr %0, i64 16
  %11 = load i32, ptr %10, align 8
  %12 = sext i32 %11 to i64
  %13 = shl nsw i64 %12, 16
  %14 = getelementptr inbounds nuw i8, ptr %0, i64 48
  %15 = load i32, ptr %14, align 8
  %16 = sext i32 %15 to i64
  %17 = udiv i64 %13, %16
  %18 = add nsw i32 %7, -1
  store i32 %18, ptr %6, align 4
  %.not35 = icmp eq i32 %7, 0
  br i1 %.not35, label %._crit_edge39, label %.lr.ph38

.lr.ph38:                                         ; preds = %1
  %19 = getelementptr inbounds nuw i8, ptr %0, i64 40
  %20 = lshr i64 %17, 1
  %21 = getelementptr inbounds nuw i8, ptr %0, i64 8
  %22 = getelementptr inbounds nuw i8, ptr %0, i64 24
  %23 = getelementptr inbounds nuw i8, ptr %0, i64 56
  %24 = icmp eq i32 %15, 0
  br i1 %24, label %.lr.ph38.split.us, label %.lr.ph38.split.preheader

.lr.ph38.split.preheader:                         ; preds = %.lr.ph38
  %25 = lshr i64 %9, 1
  %.pre = load ptr, ptr %19, align 8
  br label %.lr.ph38.split

.lr.ph38.split.us:                                ; preds = %.lr.ph38
  %26 = load i32, ptr %23, align 8
  %27 = sext i32 %26 to i64
  %.promoted = load ptr, ptr %19, align 8
  %28 = zext i32 %7 to i64
  %29 = mul nsw i64 %28, %27
  %scevgep = getelementptr i8, ptr %.promoted, i64 %29
  store ptr %scevgep, ptr %19, align 8
  store i32 -1, ptr %6, align 4
  br label %._crit_edge39

.lr.ph38.split:                                   ; preds = %.lr.ph38.split.preheader, %._crit_edge
  %30 = phi i32 [ %53, %._crit_edge ], [ %18, %.lr.ph38.split.preheader ]
  %31 = phi ptr [ %52, %._crit_edge ], [ %.pre, %.lr.ph38.split.preheader ]
  %.02836 = phi i64 [ %49, %._crit_edge ], [ %25, %.lr.ph38.split.preheader ]
  %32 = load i32, ptr %14, align 8
  %33 = lshr i64 %.02836, 16
  %.not3031 = icmp eq i32 %32, 0
  br i1 %.not3031, label %._crit_edge, label %.lr.ph

.lr.ph:                                           ; preds = %.lr.ph38.split, %.lr.ph
  %.034 = phi i32 [ %34, %.lr.ph ], [ %32, %.lr.ph38.split ]
  %.02733 = phi ptr [ %46, %.lr.ph ], [ %31, %.lr.ph38.split ]
  %.02932 = phi i64 [ %45, %.lr.ph ], [ %20, %.lr.ph38.split ]
  %34 = add nsw i32 %.034, -1
  %35 = load ptr, ptr %21, align 8
  %36 = load i32, ptr %22, align 8
  %37 = sext i32 %36 to i64
  %38 = mul i64 %33, %37
  %39 = getelementptr inbounds nuw i8, ptr %35, i64 %38
  %40 = lshr i64 %.02932, 14
  %41 = and i64 %40, 1125899906842620
  %42 = getelementptr inbounds nuw i8, ptr %39, i64 %41
  %43 = load i32, ptr %42, align 4
  %44 = tail call i32 @llvm.fshl.i32(i32 %43, i32 %43, i32 24)
  store i32 %44, ptr %.02733, align 4
  %45 = add i64 %.02932, %17
  %46 = getelementptr inbounds nuw i8, ptr %.02733, i64 4
  %.not30 = icmp eq i32 %34, 0
  br i1 %.not30, label %._crit_edge.loopexit, label %.lr.ph, !llvm.loop !201

._crit_edge.loopexit:                             ; preds = %.lr.ph
  %.pre43 = load ptr, ptr %19, align 8
  %.pre44 = load i32, ptr %6, align 4
  br label %._crit_edge

._crit_edge:                                      ; preds = %._crit_edge.loopexit, %.lr.ph38.split
  %47 = phi i32 [ %.pre44, %._crit_edge.loopexit ], [ %30, %.lr.ph38.split ]
  %48 = phi ptr [ %.pre43, %._crit_edge.loopexit ], [ %31, %.lr.ph38.split ]
  %49 = add i64 %.02836, %9
  %50 = load i32, ptr %23, align 8
  %51 = sext i32 %50 to i64
  %52 = getelementptr inbounds i8, ptr %48, i64 %51
  store ptr %52, ptr %19, align 8
  %53 = add nsw i32 %47, -1
  store i32 %53, ptr %6, align 4
  %.not = icmp eq i32 %47, 0
  br i1 %.not, label %._crit_edge39, label %.lr.ph38.split, !llvm.loop !202

._crit_edge39:                                    ; preds = %._crit_edge, %.lr.ph38.split.us, %1
  ret void
}